; Function Attrs: mustprogress nounwind uwtable
define dso_local noundef ptr @_ZNK4llvm10MCFragment7getAtomEv(ptr noundef nonnull readonly align 8 captures(none) dereferenceable(30) %0) local_unnamed_addr #1 align 2 {
  %2 = getelementptr inbounds nuw i8, ptr %0, i64 8
  %3 = load ptr, ptr %2, align 8
  %4 = getelementptr inbounds nuw i8, ptr %0, i64 24
  %5 = load i32, ptr %4, align 8
  %6 = zext i32 %5 to i64
  %7 = tail call noundef ptr @_ZNK4llvm14MCSectionMachO7getAtomEm(ptr noundef nonnull align 8 dereferenceable(192) %3, i64 noundef %6) #6
  ret ptr %7
}